target datalayout = "e-m:e-p270:32:32-p271:32:32-p272:64:64-i64:64-i128:128-f80:128-n8:16:32:64-S128"
target triple = "x86_64-pc-linux-gnu"

%struct.dwt_local = type { ptr, i32, i32, i32 }
%struct.opj_dwt_encode_h_job_t = type { %struct.dwt_local, i32, i32, ptr, i32, i32, ptr }

; Function Attrs: nounwind uwtable
define internal void @opj_dwt_encode_h_func(ptr noundef %0, ptr noundef %1) #0 {
  %3 = alloca ptr, align 8
  %4 = alloca ptr, align 8
  %5 = alloca i32, align 4
  %6 = alloca ptr, align 8
  %7 = alloca ptr, align 8
  store ptr %0, ptr %3, align 8, !tbaa !20
  store ptr %1, ptr %4, align 8, !tbaa !164
  call void @llvm.lifetime.start.p0(i64 4, ptr %5) #9
  call void @llvm.lifetime.start.p0(i64 8, ptr %6) #9
  %8 = load ptr, ptr %3, align 8, !tbaa !20
  store ptr %8, ptr %6, align 8, !tbaa !20
  %9 = load ptr, ptr %6, align 8, !tbaa !20
  %10 = getelementptr inbounds nuw %struct.opj_dwt_encode_h_job_t, ptr %9, i32 0, i32 4
  %11 = load i32, ptr %10, align 8, !tbaa !49
  store i32 %11, ptr %5, align 4, !tbaa !24
  br label %12

12:                                               ; preds = %46, %2
  %13 = load i32, ptr %5, align 4, !tbaa !24
  %14 = load ptr, ptr %6, align 8, !tbaa !20
  %15 = getelementptr inbounds nuw %struct.opj_dwt_encode_h_job_t, ptr %14, i32 0, i32 5
  %16 = load i32, ptr %15, align 4, !tbaa !50
  %17 = icmp ult i32 %13, %16
  br i1 %17, label %18, label %49

18:                                               ; preds = %12
  call void @llvm.lifetime.start.p0(i64 8, ptr %7) #9
  %19 = load ptr, ptr %6, align 8, !tbaa !20
  %20 = getelementptr inbounds nuw %struct.opj_dwt_encode_h_job_t, ptr %19, i32 0, i32 3
  %21 = load ptr, ptr %20, align 8, !tbaa !48
  %22 = load i32, ptr %5, align 4, !tbaa !24
  %23 = load ptr, ptr %6, align 8, !tbaa !20
  %24 = getelementptr inbounds nuw %struct.opj_dwt_encode_h_job_t, ptr %23, i32 0, i32 2
  %25 = load i32, ptr %24, align 4, !tbaa !47
  %26 = mul i32 %22, %25
  %27 = zext i32 %26 to i64
  %28 = getelementptr inbounds nuw i32, ptr %21, i64 %27
  store ptr %28, ptr %7, align 8, !tbaa !21
  %29 = load ptr, ptr %6, align 8, !tbaa !20
  %30 = getelementptr inbounds nuw %struct.opj_dwt_encode_h_job_t, ptr %29, i32 0, i32 6
  %31 = load ptr, ptr %30, align 8, !tbaa !51
  %32 = load ptr, ptr %7, align 8, !tbaa !21
  %33 = load ptr, ptr %6, align 8, !tbaa !20
  %34 = getelementptr inbounds nuw %struct.opj_dwt_encode_h_job_t, ptr %33, i32 0, i32 0
  %35 = getelementptr inbounds nuw %struct.dwt_local, ptr %34, i32 0, i32 0
  %36 = load ptr, ptr %35, align 8, !tbaa !40
  %37 = load ptr, ptr %6, align 8, !tbaa !20
  %38 = getelementptr inbounds nuw %struct.opj_dwt_encode_h_job_t, ptr %37, i32 0, i32 1
  %39 = load i32, ptr %38, align 8, !tbaa !46
  %40 = load ptr, ptr %6, align 8, !tbaa !20
  %41 = getelementptr inbounds nuw %struct.opj_dwt_encode_h_job_t, ptr %40, i32 0, i32 0
  %42 = getelementptr inbounds nuw %struct.dwt_local, ptr %41, i32 0, i32 3
  %43 = load i32, ptr %42, align 8, !tbaa !45
  %44 = icmp eq i32 %43, 0
  %45 = select i1 %44, i32 1, i32 0
  call void %31(ptr noundef %32, ptr noundef %36, i32 noundef %39, i32 noundef %45)
  call void @llvm.lifetime.end.p0(i64 8, ptr %7) #9
  br label %46

46:                                               ; preds = %18
  %47 = load i32, ptr %5, align 4, !tbaa !24
  %48 = add i32 %47, 1
  store i32 %48, ptr %5, align 4, !tbaa !24
  br label %12, !llvm.loop !167

49:                                               ; preds = %12
  %50 = load ptr, ptr %6, align 8, !tbaa !20
  %51 = getelementptr inbounds nuw %struct.opj_dwt_encode_h_job_t, ptr %50, i32 0, i32 0
  %52 = getelementptr inbounds nuw %struct.dwt_local, ptr %51, i32 0, i32 0
  %53 = load ptr, ptr %52, align 8, !tbaa !40
  call void @opj_aligned_free(ptr noundef %53)
  %54 = load ptr, ptr %6, align 8, !tbaa !20
  call void @opj_free(ptr noundef %54)
  call void @llvm.lifetime.end.p0(i64 8, ptr %6) #9
  call void @llvm.lifetime.end.p0(i64 4, ptr %5) #9
  ret void
}