; Function Attrs: nounwind uwtable
define internal void @opj_dwt_encode_h_func(ptr noundef %0, ptr readnone captures(none) %1) #0 {
  %3 = getelementptr inbounds nuw i8, ptr %0, i64 40
  %4 = load i32, ptr %3, align 8, !tbaa !44
  %5 = getelementptr inbounds nuw i8, ptr %0, i64 44
  %6 = load i32, ptr %5, align 4, !tbaa !45
  %7 = icmp ult i32 %4, %6
  br i1 %7, label %.lr.ph, label %._crit_edge

.lr.ph:                                           ; preds = %2
  %8 = getelementptr inbounds nuw i8, ptr %0, i64 32
  %9 = getelementptr inbounds nuw i8, ptr %0, i64 28
  %10 = getelementptr inbounds nuw i8, ptr %0, i64 48
  %11 = getelementptr inbounds nuw i8, ptr %0, i64 24
  %12 = getelementptr inbounds nuw i8, ptr %0, i64 16
  br label %13

13:                                               ; preds = %.lr.ph, %13
  %.014 = phi i32 [ %4, %.lr.ph ], [ %25, %13 ]
  %14 = load ptr, ptr %8, align 8, !tbaa !43
  %15 = load i32, ptr %9, align 4, !tbaa !42
  %16 = mul i32 %15, %.014
  %17 = zext i32 %16 to i64
  %18 = getelementptr inbounds nuw i32, ptr %14, i64 %17
  %19 = load ptr, ptr %10, align 8, !tbaa !46
  %20 = load ptr, ptr %0, align 8, !tbaa !35
  %21 = load i32, ptr %11, align 8, !tbaa !41
  %22 = load i32, ptr %12, align 8, !tbaa !40
  %23 = icmp eq i32 %22, 0
  %24 = zext i1 %23 to i32
  tail call void %19(ptr noundef %18, ptr noundef %20, i32 noundef %21, i32 noundef %24) #16
  %25 = add nuw i32 %.014, 1
  %26 = load i32, ptr %5, align 4, !tbaa !45
  %27 = icmp ult i32 %25, %26
  br i1 %27, label %13, label %._crit_edge, !llvm.loop !261

._crit_edge:                                      ; preds = %13, %2
  %28 = load ptr, ptr %0, align 8, !tbaa !35
  tail call void @opj_aligned_free(ptr noundef %28) #16
  tail call void @opj_free(ptr noundef nonnull %0) #16
  ret void
}